target datalayout = "e-m:e-p270:32:32-p271:32:32-p272:64:64-i64:64-i128:128-f80:128-n8:16:32:64-S128"
target triple = "x86_64-unknown-linux-gnu"

%struct.Token = type { i32, ptr, i64, x86_fp80, ptr, i32, ptr, ptr, ptr, ptr, i32, i32, i8, i8, ptr, ptr }

@.str.20 = private unnamed_addr constant [2 x i8] c"*\00", align 1
@.str.41 = private unnamed_addr constant [6 x i8] c"const\00", align 1
@.str.42 = private unnamed_addr constant [9 x i8] c"volatile\00", align 1
@.str.45 = private unnamed_addr constant [9 x i8] c"restrict\00", align 1
@.str.46 = private unnamed_addr constant [11 x i8] c"__restrict\00", align 1
@.str.47 = private unnamed_addr constant [13 x i8] c"__restrict__\00", align 1

; Function Attrs: nounwind uwtable
define internal ptr @pointers(ptr noundef %rest, ptr noundef %tok, ptr noundef %ty) #0 {
entry:
  %rest.addr = alloca ptr, align 8
  %tok.addr = alloca ptr, align 8
  %ty.addr = alloca ptr, align 8
  store ptr %rest, ptr %rest.addr, align 8
  store ptr %tok, ptr %tok.addr, align 8
  store ptr %ty, ptr %ty.addr, align 8
  br label %while.cond

while.cond:                                       ; preds = %while.end, %entry
  %0 = load ptr, ptr %tok.addr, align 8
  %call = call zeroext i1 @consume(ptr noundef %tok.addr, ptr noundef %0, ptr noundef @.str.20)
  br i1 %call, label %while.body, label %while.end11

while.body:                                       ; preds = %while.cond
  %1 = load ptr, ptr %ty.addr, align 8
  %call1 = call ptr @pointer_to(ptr noundef %1)
  store ptr %call1, ptr %ty.addr, align 8
  br label %while.cond2

while.cond2:                                      ; preds = %while.body10, %while.body
  %2 = load ptr, ptr %tok.addr, align 8
  %call3 = call zeroext i1 @equal(ptr noundef %2, ptr noundef @.str.41)
  br i1 %call3, label %lor.end, label %lor.lhs.false

lor.lhs.false:                                    ; preds = %while.cond2
  %3 = load ptr, ptr %tok.addr, align 8
  %call4 = call zeroext i1 @equal(ptr noundef %3, ptr noundef @.str.42)
  br i1 %call4, label %lor.end, label %lor.lhs.false5

lor.lhs.false5:                                   ; preds = %lor.lhs.false
  %4 = load ptr, ptr %tok.addr, align 8
  %call6 = call zeroext i1 @equal(ptr noundef %4, ptr noundef @.str.45)
  br i1 %call6, label %lor.end, label %lor.lhs.false7

lor.lhs.false7:                                   ; preds = %lor.lhs.false5
  %5 = load ptr, ptr %tok.addr, align 8
  %call8 = call zeroext i1 @equal(ptr noundef %5, ptr noundef @.str.46)
  br i1 %call8, label %lor.end, label %lor.rhs

lor.rhs:                                          ; preds = %lor.lhs.false7
  %6 = load ptr, ptr %tok.addr, align 8
  %call9 = call zeroext i1 @equal(ptr noundef %6, ptr noundef @.str.47)
  br label %lor.end

lor.end:                                          ; preds = %lor.rhs, %lor.lhs.false7, %lor.lhs.false5, %lor.lhs.false, %while.cond2
  %7 = phi i1 [ true, %lor.lhs.false7 ], [ true, %lor.lhs.false5 ], [ true, %lor.lhs.false ], [ true, %while.cond2 ], [ %call9, %lor.rhs ]
  br i1 %7, label %while.body10, label %while.end

while.body10:                                     ; preds = %lor.end
  %8 = load ptr, ptr %tok.addr, align 8
  %next = getelementptr inbounds %struct.Token, ptr %8, i32 0, i32 1
  %9 = load ptr, ptr %next, align 8
  store ptr %9, ptr %tok.addr, align 8
  br label %while.cond2, !llvm.loop !23

while.end:                                        ; preds = %lor.end
  br label %while.cond, !llvm.loop !24

while.end11:                                      ; preds = %while.cond
  %10 = load ptr, ptr %tok.addr, align 8
  %11 = load ptr, ptr %rest.addr, align 8
  store ptr %10, ptr %11, align 8
  %12 = load ptr, ptr %ty.addr, align 8
  ret ptr %12
}