; Function Attrs: nounwind uwtable
define internal fastcc ptr @pointers(ptr nocapture noundef writeonly %rest, ptr noundef %tok, ptr noundef %ty) unnamed_addr #0 {
entry:
  %tok.addr = alloca ptr, align 8
  store ptr %tok, ptr %tok.addr, align 8
  %call2 = call zeroext i1 @consume(ptr noundef nonnull %tok.addr, ptr noundef %tok, ptr noundef nonnull @.str.20) #13
  br i1 %call2, label %while.body, label %while.end11

while.cond.loopexit:                              ; preds = %lor.rhs
  %0 = load ptr, ptr %tok.addr, align 8
  %call = call zeroext i1 @consume(ptr noundef nonnull %tok.addr, ptr noundef %0, ptr noundef nonnull @.str.20) #13
  br i1 %call, label %while.body, label %while.end11, !llvm.loop !26

while.body:                                       ; preds = %entry, %while.cond.loopexit
  %ty.addr.03 = phi ptr [ %call1, %while.cond.loopexit ], [ %ty, %entry ]
  %call1 = call ptr @pointer_to(ptr noundef %ty.addr.03) #13
  %.pre = load ptr, ptr %tok.addr, align 8
  br label %while.cond2

while.cond2:                                      ; preds = %while.body10, %while.body
  %1 = phi ptr [ %7, %while.body10 ], [ %.pre, %while.body ]
  %call3 = call zeroext i1 @equal(ptr noundef %1, ptr noundef nonnull @.str.41) #13
  br i1 %call3, label %while.body10, label %lor.lhs.false

lor.lhs.false:                                    ; preds = %while.cond2
  %2 = load ptr, ptr %tok.addr, align 8
  %call4 = call zeroext i1 @equal(ptr noundef %2, ptr noundef nonnull @.str.42) #13
  br i1 %call4, label %while.body10, label %lor.lhs.false5

lor.lhs.false5:                                   ; preds = %lor.lhs.false
  %3 = load ptr, ptr %tok.addr, align 8
  %call6 = call zeroext i1 @equal(ptr noundef %3, ptr noundef nonnull @.str.45) #13
  br i1 %call6, label %while.body10, label %lor.lhs.false7

lor.lhs.false7:                                   ; preds = %lor.lhs.false5
  %4 = load ptr, ptr %tok.addr, align 8
  %call8 = call zeroext i1 @equal(ptr noundef %4, ptr noundef nonnull @.str.46) #13
  br i1 %call8, label %while.body10, label %lor.rhs

lor.rhs:                                          ; preds = %lor.lhs.false7
  %5 = load ptr, ptr %tok.addr, align 8
  %call9 = call zeroext i1 @equal(ptr noundef %5, ptr noundef nonnull @.str.47) #13
  br i1 %call9, label %while.body10, label %while.cond.loopexit

while.body10:                                     ; preds = %lor.lhs.false7, %lor.lhs.false5, %lor.lhs.false, %while.cond2, %lor.rhs
  %6 = load ptr, ptr %tok.addr, align 8
  %next = getelementptr inbounds %struct.Token, ptr %6, i64 0, i32 1
  %7 = load ptr, ptr %next, align 8
  store ptr %7, ptr %tok.addr, align 8
  br label %while.cond2, !llvm.loop !27

while.end11:                                      ; preds = %while.cond.loopexit, %entry
  %ty.addr.0.lcssa = phi ptr [ %ty, %entry ], [ %call1, %while.cond.loopexit ]
  %8 = load ptr, ptr %tok.addr, align 8
  store ptr %8, ptr %rest, align 8
  ret ptr %ty.addr.0.lcssa
}